target datalayout = "e-m:e-p270:32:32-p271:32:32-p272:64:64-i64:64-i128:128-f80:128-n8:16:32:64-S128"
target triple = "x86_64-pc-linux-gnu"

%struct.ReorderBuffer = type { ptr, %struct.dlist_head, %struct.dlist_head, %struct.dclist_head, i32, ptr, ptr, ptr, ptr, ptr, ptr, ptr, ptr, ptr, ptr, ptr, ptr, ptr, ptr, ptr, ptr, ptr, ptr, ptr, ptr, i8, ptr, ptr, ptr, ptr, i64, ptr, i64, i64, ptr, i64, i64, i64, i64, i64, i64, i64, i64 }
%struct.dlist_head = type { %struct.dlist_node }
%struct.dlist_node = type { ptr, ptr }
%struct.dclist_head = type { %struct.dlist_head, i32 }

; Function Attrs: inlinehint nounwind uwtable
define internal ptr @dlist_head_element_off(ptr noundef %0, i64 noundef %1) #4 {
  %3 = alloca ptr, align 8
  %4 = alloca i64, align 8
  store ptr %0, ptr %3, align 8
  store i64 %1, ptr %4, align 8
  %5 = load ptr, ptr %3, align 8
  %6 = getelementptr inbounds nuw %struct.dlist_head, ptr %5, i32 0, i32 0
  %7 = getelementptr inbounds nuw %struct.dlist_node, ptr %6, i32 0, i32 1
  %8 = load ptr, ptr %7, align 8
  %9 = load i64, ptr %4, align 8
  %10 = sub i64 0, %9
  %11 = getelementptr inbounds i8, ptr %8, i64 %10
  ret ptr %11
}

; Function Attrs: inlinehint nounwind uwtable
define internal zeroext i1 @dlist_is_empty(ptr noundef %0) #4 {
  %2 = alloca ptr, align 8
  store ptr %0, ptr %2, align 8
  %3 = load ptr, ptr %2, align 8
  %4 = getelementptr inbounds nuw %struct.dlist_head, ptr %3, i32 0, i32 0
  %5 = getelementptr inbounds nuw %struct.dlist_node, ptr %4, i32 0, i32 1
  %6 = load ptr, ptr %5, align 8
  %7 = icmp eq ptr %6, null
  br i1 %7, label %16, label %8

8:                                                ; preds = %1
  %9 = load ptr, ptr %2, align 8
  %10 = getelementptr inbounds nuw %struct.dlist_head, ptr %9, i32 0, i32 0
  %11 = getelementptr inbounds nuw %struct.dlist_node, ptr %10, i32 0, i32 1
  %12 = load ptr, ptr %11, align 8
  %13 = load ptr, ptr %2, align 8
  %14 = getelementptr inbounds nuw %struct.dlist_head, ptr %13, i32 0, i32 0
  %15 = icmp eq ptr %12, %14
  br label %16

16:                                               ; preds = %8, %1
  %17 = phi i1 [ true, %1 ], [ %15, %8 ]
  ret i1 %17
}

; Function Attrs: nounwind uwtable
define internal void @AssertTXNLsnOrder(ptr noundef %0) #0 {
  %2 = alloca ptr, align 8
  store ptr %0, ptr %2, align 8
  ret void
}

; Function Attrs: nounwind uwtable
define dso_local ptr @ReorderBufferGetOldestTXN(ptr noundef %0) #0 {
  %2 = alloca ptr, align 8
  %3 = alloca ptr, align 8
  %4 = alloca ptr, align 8
  %5 = alloca i32, align 4
  %6 = alloca i32, align 4
  store ptr %0, ptr %3, align 8
  call void @llvm.lifetime.start.p0(i64 8, ptr %4) #13
  %7 = load ptr, ptr %3, align 8
  call void @AssertTXNLsnOrder(ptr noundef %7)
  %8 = load ptr, ptr %3, align 8
  %9 = getelementptr inbounds nuw %struct.ReorderBuffer, ptr %8, i32 0, i32 1
  %10 = call zeroext i1 @dlist_is_empty(ptr noundef %9)
  br i1 %10, label %11, label %12

11:                                               ; preds = %1
  store ptr null, ptr %2, align 8
  store i32 1, ptr %5, align 4
  br label %20

12:                                               ; preds = %1
  br label %13

13:                                               ; preds = %12
  br label %14

14:                                               ; preds = %13
  br label %15

15:                                               ; preds = %14
  store i32 1, ptr %6, align 4
  %16 = load ptr, ptr %3, align 8
  %17 = getelementptr inbounds nuw %struct.ReorderBuffer, ptr %16, i32 0, i32 1
  %18 = call ptr @dlist_head_element_off(ptr noundef %17, i64 noundef 240)
  store ptr %18, ptr %4, align 8
  %19 = load ptr, ptr %4, align 8
  store ptr %19, ptr %2, align 8
  store i32 1, ptr %5, align 4
  br label %20

20:                                               ; preds = %15, %11
  call void @llvm.lifetime.end.p0(i64 8, ptr %4) #13
  %21 = load ptr, ptr %2, align 8
  ret ptr %21
}