; Function Attrs: mustprogress nofree norecurse nosync nounwind willreturn memory(argmem: read) uwtable
define dso_local ptr @ReorderBufferGetOldestTXN(ptr noundef readonly captures(address) %0) local_unnamed_addr #4 {
  %2 = getelementptr inbounds nuw i8, ptr %0, i64 8
  %3 = getelementptr inbounds nuw i8, ptr %0, i64 16
  %4 = load ptr, ptr %3, align 8
  %5 = icmp eq ptr %4, null
  %6 = icmp eq ptr %4, %2
  %spec.select.i = or i1 %5, %6
  %7 = getelementptr inbounds i8, ptr %4, i64 -240
  %spec.select = select i1 %spec.select.i, ptr null, ptr %7
  ret ptr %spec.select
}